target datalayout = "e-m:e-p270:32:32-p271:32:32-p272:64:64-i64:64-i128:128-f80:128-n8:16:32:64-S128"
target triple = "x86_64-unknown-linux-gnu"

%"class.pstd::pmr::monotonic_buffer_resource" = type { %"class.pstd::pmr::memory_resource", ptr, i64, ptr, i64, ptr, [16 x i8] }
%"class.pstd::pmr::memory_resource" = type { ptr }
%"struct.pstd::pmr::monotonic_buffer_resource::block" = type { ptr, i64, ptr }

; Function Attrs: mustprogress uwtable
define linkonce_odr dso_local noundef ptr @_ZN4pstd3pmr25monotonic_buffer_resource14allocate_blockEm(ptr noundef nonnull align 64 dereferenceable(48) %this, i64 noundef %size) #5 comdat align 2 {
entry:
  %this.addr = alloca ptr, align 8
  %size.addr = alloca i64, align 8
  %b = alloca ptr, align 8
  store ptr %this, ptr %this.addr, align 8
  store i64 %size, ptr %size.addr, align 8
  %this1 = load ptr, ptr %this.addr, align 8
  %upstream = getelementptr inbounds %"class.pstd::pmr::monotonic_buffer_resource", ptr %this1, i32 0, i32 1
  %0 = load ptr, ptr %upstream, align 8
  %1 = load i64, ptr %size.addr, align 8
  %add = add i64 24, %1
  %call = call noundef ptr @_ZN4pstd3pmr15memory_resource8allocateEmm(ptr noundef nonnull align 8 dereferenceable(8) %0, i64 noundef %add, i64 noundef 8)
  store ptr %call, ptr %b, align 8
  %2 = load ptr, ptr %b, align 8
  %add.ptr = getelementptr inbounds i8, ptr %2, i64 24
  %3 = load ptr, ptr %b, align 8
  %ptr = getelementptr inbounds %"struct.pstd::pmr::monotonic_buffer_resource::block", ptr %3, i32 0, i32 0
  store ptr %add.ptr, ptr %ptr, align 8
  %4 = load i64, ptr %size.addr, align 8
  %5 = load ptr, ptr %b, align 8
  %size2 = getelementptr inbounds %"struct.pstd::pmr::monotonic_buffer_resource::block", ptr %5, i32 0, i32 1
  store i64 %4, ptr %size2, align 8
  %block_list = getelementptr inbounds %"class.pstd::pmr::monotonic_buffer_resource", ptr %this1, i32 0, i32 5
  %6 = load ptr, ptr %block_list, align 8
  %7 = load ptr, ptr %b, align 8
  %next = getelementptr inbounds %"struct.pstd::pmr::monotonic_buffer_resource::block", ptr %7, i32 0, i32 2
  store ptr %6, ptr %next, align 8
  %8 = load ptr, ptr %b, align 8
  %block_list3 = getelementptr inbounds %"class.pstd::pmr::monotonic_buffer_resource", ptr %this1, i32 0, i32 5
  store ptr %8, ptr %block_list3, align 8
  %9 = load ptr, ptr %b, align 8
  ret ptr %9
}

; Function Attrs: mustprogress uwtable
define linkonce_odr dso_local noundef ptr @_ZN4pstd3pmr15memory_resource8allocateEmm(ptr noundef nonnull align 8 dereferenceable(8) %this, i64 noundef %bytes, i64 noundef %alignment) #5 comdat align 2 {
entry:
  %retval = alloca ptr, align 8
  %this.addr = alloca ptr, align 8
  %bytes.addr = alloca i64, align 8
  %alignment.addr = alloca i64, align 8
  store ptr %this, ptr %this.addr, align 8
  store i64 %bytes, ptr %bytes.addr, align 8
  store i64 %alignment, ptr %alignment.addr, align 8
  %this1 = load ptr, ptr %this.addr, align 8
  %0 = load i64, ptr %bytes.addr, align 8
  %cmp = icmp eq i64 %0, 0
  br i1 %cmp, label %if.then, label %if.end

if.then:                                          ; preds = %entry
  store ptr null, ptr %retval, align 8
  br label %return

if.end:                                           ; preds = %entry
  %1 = load i64, ptr %bytes.addr, align 8
  %2 = load i64, ptr %alignment.addr, align 8
  %vtable = load ptr, ptr %this1, align 8
  %vfn = getelementptr inbounds ptr, ptr %vtable, i64 2
  %3 = load ptr, ptr %vfn, align 8
  %call = call noundef ptr %3(ptr noundef nonnull align 8 dereferenceable(8) %this1, i64 noundef %1, i64 noundef %2)
  store ptr %call, ptr %retval, align 8
  br label %return

return:                                           ; preds = %if.end, %if.then
  %4 = load ptr, ptr %retval, align 8
  ret ptr %4
}

; Function Attrs: mustprogress uwtable
define dso_local noundef ptr @_ZN4pstd3pmr25monotonic_buffer_resource11do_allocateEmm(ptr noundef nonnull align 64 dereferenceable(48) %this, i64 noundef %bytes, i64 noundef %align) unnamed_addr #5 align 2 {
entry:
  %retval = alloca ptr, align 8
  %this.addr = alloca ptr, align 8
  %bytes.addr = alloca i64, align 8
  %align.addr = alloca i64, align 8
  %ptr = alloca ptr, align 8
  store ptr %this, ptr %this.addr, align 8
  store i64 %bytes, ptr %bytes.addr, align 8
  store i64 %align, ptr %align.addr, align 8
  %this1 = load ptr, ptr %this.addr, align 8
  %0 = load i64, ptr %bytes.addr, align 8
  %block_size = getelementptr inbounds %"class.pstd::pmr::monotonic_buffer_resource", ptr %this1, i32 0, i32 2
  %1 = load i64, ptr %block_size, align 16
  %cmp = icmp ugt i64 %0, %1
  br i1 %cmp, label %if.then, label %if.end

if.then:                                          ; preds = %entry
  %upstream = getelementptr inbounds %"class.pstd::pmr::monotonic_buffer_resource", ptr %this1, i32 0, i32 1
  %2 = load ptr, ptr %upstream, align 8
  %3 = load i64, ptr %bytes.addr, align 8
  %4 = load i64, ptr %align.addr, align 8
  %call = call noundef ptr @_ZN4pstd3pmr15memory_resource8allocateEmm(ptr noundef nonnull align 8 dereferenceable(8) %2, i64 noundef %3, i64 noundef %4)
  store ptr %call, ptr %retval, align 8
  br label %return

if.end:                                           ; preds = %entry
  %current_pos = getelementptr inbounds %"class.pstd::pmr::monotonic_buffer_resource", ptr %this1, i32 0, i32 4
  %5 = load i64, ptr %current_pos, align 32
  %6 = load i64, ptr %align.addr, align 8
  %rem = urem i64 %5, %6
  %cmp2 = icmp ne i64 %rem, 0
  br i1 %cmp2, label %if.then3, label %if.end7

if.then3:                                         ; preds = %if.end
  %7 = load i64, ptr %align.addr, align 8
  %current_pos4 = getelementptr inbounds %"class.pstd::pmr::monotonic_buffer_resource", ptr %this1, i32 0, i32 4
  %8 = load i64, ptr %current_pos4, align 32
  %9 = load i64, ptr %align.addr, align 8
  %rem5 = urem i64 %8, %9
  %sub = sub i64 %7, %rem5
  %current_pos6 = getelementptr inbounds %"class.pstd::pmr::monotonic_buffer_resource", ptr %this1, i32 0, i32 4
  %10 = load i64, ptr %current_pos6, align 32
  %add = add i64 %10, %sub
  store i64 %add, ptr %current_pos6, align 32
  br label %if.end7

if.end7:                                          ; preds = %if.then3, %if.end
  br label %do.body

do.body:                                          ; preds = %if.end7
  br label %do.end

do.end:                                           ; preds = %do.body
  %current = getelementptr inbounds %"class.pstd::pmr::monotonic_buffer_resource", ptr %this1, i32 0, i32 3
  %11 = load ptr, ptr %current, align 8
  %tobool = icmp ne ptr %11, null
  br i1 %tobool, label %lor.lhs.false, label %if.then12

lor.lhs.false:                                    ; preds = %do.end
  %current_pos8 = getelementptr inbounds %"class.pstd::pmr::monotonic_buffer_resource", ptr %this1, i32 0, i32 4
  %12 = load i64, ptr %current_pos8, align 32
  %13 = load i64, ptr %bytes.addr, align 8
  %add9 = add i64 %12, %13
  %current10 = getelementptr inbounds %"class.pstd::pmr::monotonic_buffer_resource", ptr %this1, i32 0, i32 3
  %14 = load ptr, ptr %current10, align 8
  %size = getelementptr inbounds %"struct.pstd::pmr::monotonic_buffer_resource::block", ptr %14, i32 0, i32 1
  %15 = load i64, ptr %size, align 8
  %cmp11 = icmp ugt i64 %add9, %15
  br i1 %cmp11, label %if.then12, label %if.end17

if.then12:                                        ; preds = %lor.lhs.false, %do.end
  %block_size13 = getelementptr inbounds %"class.pstd::pmr::monotonic_buffer_resource", ptr %this1, i32 0, i32 2
  %16 = load i64, ptr %block_size13, align 16
  %call14 = call noundef ptr @_ZN4pstd3pmr25monotonic_buffer_resource14allocate_blockEm(ptr noundef nonnull align 64 dereferenceable(48) %this1, i64 noundef %16)
  %current15 = getelementptr inbounds %"class.pstd::pmr::monotonic_buffer_resource", ptr %this1, i32 0, i32 3
  store ptr %call14, ptr %current15, align 8
  %current_pos16 = getelementptr inbounds %"class.pstd::pmr::monotonic_buffer_resource", ptr %this1, i32 0, i32 4
  store i64 0, ptr %current_pos16, align 32
  br label %if.end17

if.end17:                                         ; preds = %if.then12, %lor.lhs.false
  %current18 = getelementptr inbounds %"class.pstd::pmr::monotonic_buffer_resource", ptr %this1, i32 0, i32 3
  %17 = load ptr, ptr %current18, align 8
  %ptr19 = getelementptr inbounds %"struct.pstd::pmr::monotonic_buffer_resource::block", ptr %17, i32 0, i32 0
  %18 = load ptr, ptr %ptr19, align 8
  %current_pos20 = getelementptr inbounds %"class.pstd::pmr::monotonic_buffer_resource", ptr %this1, i32 0, i32 4
  %19 = load i64, ptr %current_pos20, align 32
  %add.ptr = getelementptr inbounds i8, ptr %18, i64 %19
  store ptr %add.ptr, ptr %ptr, align 8
  %20 = load i64, ptr %bytes.addr, align 8
  %current_pos21 = getelementptr inbounds %"class.pstd::pmr::monotonic_buffer_resource", ptr %this1, i32 0, i32 4
  %21 = load i64, ptr %current_pos21, align 32
  %add22 = add i64 %21, %20
  store i64 %add22, ptr %current_pos21, align 32
  %22 = load ptr, ptr %ptr, align 8
  store ptr %22, ptr %retval, align 8
  br label %return

return:                                           ; preds = %if.end17, %if.then
  %23 = load ptr, ptr %retval, align 8
  ret ptr %23
}