; Function Attrs: mustprogress uwtable
define dso_local noundef ptr @_ZN4pstd3pmr25monotonic_buffer_resource11do_allocateEmm(ptr nocapture noundef nonnull align 64 dereferenceable(48) %this, i64 noundef %bytes, i64 noundef %align) unnamed_addr #8 align 2 {
entry:
  %block_size = getelementptr inbounds i8, ptr %this, i64 16
  %0 = load i64, ptr %block_size, align 16
  %cmp = icmp ult i64 %0, %bytes
  br i1 %cmp, label %_ZN4pstd3pmr15memory_resource8allocateEmm.exit, label %if.end

_ZN4pstd3pmr15memory_resource8allocateEmm.exit:   ; preds = %entry
  %upstream = getelementptr inbounds i8, ptr %this, i64 8
  %1 = load ptr, ptr %upstream, align 8
  %vtable.i = load ptr, ptr %1, align 8
  %vfn.i = getelementptr inbounds i8, ptr %vtable.i, i64 16
  %2 = load ptr, ptr %vfn.i, align 8
  %call.i = tail call noundef ptr %2(ptr noundef nonnull align 8 dereferenceable(8) %1, i64 noundef %bytes, i64 noundef %align)
  br label %return

if.end:                                           ; preds = %entry
  %current_pos = getelementptr inbounds i8, ptr %this, i64 32
  %3 = load i64, ptr %current_pos, align 32
  %rem = urem i64 %3, %align
  %cmp2.not = icmp eq i64 %rem, 0
  br i1 %cmp2.not, label %do.end, label %if.then3

if.then3:                                         ; preds = %if.end
  %sub = add i64 %3, %align
  %add = sub i64 %sub, %rem
  store i64 %add, ptr %current_pos, align 32
  br label %do.end

do.end:                                           ; preds = %if.then3, %if.end
  %4 = phi i64 [ %add, %if.then3 ], [ %3, %if.end ]
  %current = getelementptr inbounds i8, ptr %this, i64 24
  %5 = load ptr, ptr %current, align 8
  %tobool.not = icmp eq ptr %5, null
  br i1 %tobool.not, label %if.then12, label %lor.lhs.false

lor.lhs.false:                                    ; preds = %do.end
  %add9 = add i64 %4, %bytes
  %size = getelementptr inbounds i8, ptr %5, i64 8
  %6 = load i64, ptr %size, align 8
  %cmp11 = icmp ugt i64 %add9, %6
  br i1 %cmp11, label %if.then12, label %if.end17

if.then12:                                        ; preds = %lor.lhs.false, %do.end
  %add.i = add i64 %0, 24
  %cmp.i.i = icmp eq i64 %add.i, 0
  br i1 %cmp.i.i, label %_ZN4pstd3pmr25monotonic_buffer_resource14allocate_blockEm.exit, label %if.end.i.i

if.end.i.i:                                       ; preds = %if.then12
  %upstream.i = getelementptr inbounds i8, ptr %this, i64 8
  %7 = load ptr, ptr %upstream.i, align 8
  %vtable.i.i = load ptr, ptr %7, align 8
  %vfn.i.i = getelementptr inbounds i8, ptr %vtable.i.i, i64 16
  %8 = load ptr, ptr %vfn.i.i, align 8
  %call.i.i = tail call noundef ptr %8(ptr noundef nonnull align 8 dereferenceable(8) %7, i64 noundef %add.i, i64 noundef 8)
  br label %_ZN4pstd3pmr25monotonic_buffer_resource14allocate_blockEm.exit

_ZN4pstd3pmr25monotonic_buffer_resource14allocate_blockEm.exit: ; preds = %if.then12, %if.end.i.i
  %retval.0.i.i = phi ptr [ %call.i.i, %if.end.i.i ], [ null, %if.then12 ]
  %add.ptr.i = getelementptr inbounds i8, ptr %retval.0.i.i, i64 24
  store ptr %add.ptr.i, ptr %retval.0.i.i, align 8
  %size2.i = getelementptr inbounds i8, ptr %retval.0.i.i, i64 8
  store i64 %0, ptr %size2.i, align 8
  %block_list.i = getelementptr inbounds i8, ptr %this, i64 40
  %9 = load ptr, ptr %block_list.i, align 8
  %next.i = getelementptr inbounds i8, ptr %retval.0.i.i, i64 16
  store ptr %9, ptr %next.i, align 8
  store ptr %retval.0.i.i, ptr %block_list.i, align 8
  store ptr %retval.0.i.i, ptr %current, align 8
  store i64 0, ptr %current_pos, align 32
  br label %if.end17

if.end17:                                         ; preds = %_ZN4pstd3pmr25monotonic_buffer_resource14allocate_blockEm.exit, %lor.lhs.false
  %10 = phi i64 [ 0, %_ZN4pstd3pmr25monotonic_buffer_resource14allocate_blockEm.exit ], [ %4, %lor.lhs.false ]
  %11 = phi ptr [ %retval.0.i.i, %_ZN4pstd3pmr25monotonic_buffer_resource14allocate_blockEm.exit ], [ %5, %lor.lhs.false ]
  %12 = load ptr, ptr %11, align 8
  %add.ptr = getelementptr inbounds i8, ptr %12, i64 %10
  %add22 = add i64 %10, %bytes
  store i64 %add22, ptr %current_pos, align 32
  br label %return

return:                                           ; preds = %if.end17, %_ZN4pstd3pmr15memory_resource8allocateEmm.exit
  %retval.0 = phi ptr [ %call.i, %_ZN4pstd3pmr15memory_resource8allocateEmm.exit ], [ %add.ptr, %if.end17 ]
  ret ptr %retval.0
}